; Function Attrs: nounwind sspstrong uwtable
define dso_local range(i32 -403, 1) i32 @onig_reg_init(ptr noundef writeonly captures(address_is_null) %0, i32 noundef %1, i32 noundef %2, ptr noundef %3, ptr noundef %4) local_unnamed_addr #4 {
  %.b = load i1, ptr @onig_inited, align 4
  br i1 %.b, label %7, label %onig_init.exit

onig_init.exit:                                   ; preds = %5
  store i1 true, ptr @onig_inited, align 4
  %6 = tail call i32 @onigenc_init() #20
  br label %7

7:                                                ; preds = %onig_init.exit, %5
  %8 = icmp eq ptr %0, null
  br i1 %8, label %30, label %9

9:                                                ; preds = %7
  %10 = icmp eq ptr %3, null
  br i1 %10, label %30, label %11

11:                                               ; preds = %9
  %12 = and i32 %1, 384
  %13 = icmp eq i32 %12, 384
  br i1 %13, label %30, label %14

14:                                               ; preds = %11
  %15 = and i32 %1, 64
  %.not = icmp eq i32 %15, 0
  %16 = getelementptr inbounds nuw i8, ptr %4, i64 12
  %17 = load i32, ptr %16, align 4, !tbaa !214
  %18 = or i32 %17, %1
  %19 = and i32 %18, -9
  %.027 = select i1 %.not, i32 %18, i32 %19
  %20 = getelementptr inbounds nuw i8, ptr %0, i64 72
  store ptr %3, ptr %20, align 8, !tbaa !73
  %21 = getelementptr inbounds nuw i8, ptr %0, i64 56
  store i32 %.027, ptr %21, align 8, !tbaa !57
  %22 = getelementptr inbounds nuw i8, ptr %0, i64 80
  store ptr %4, ptr %22, align 8, !tbaa !215
  %23 = getelementptr inbounds nuw i8, ptr %0, i64 100
  store i32 0, ptr %23, align 4, !tbaa !102
  %24 = getelementptr inbounds nuw i8, ptr %0, i64 136
  store ptr null, ptr %24, align 8, !tbaa !23
  %25 = getelementptr inbounds nuw i8, ptr %0, i64 408
  %26 = getelementptr inbounds nuw i8, ptr %0, i64 448
  store ptr null, ptr %26, align 8, !tbaa !27
  %27 = getelementptr inbounds nuw i8, ptr %0, i64 88
  store ptr null, ptr %27, align 8, !tbaa !39
  %28 = getelementptr inbounds nuw i8, ptr %0, i64 96
  tail call void @llvm.memset.p0.i64(ptr noundef nonnull align 8 dereferenceable(16) %0, i8 0, i64 16, i1 false)
  tail call void @llvm.memset.p0.i64(ptr noundef nonnull align 8 dereferenceable(16) %25, i8 0, i64 16, i1 false)
  store i32 %2, ptr %28, align 8, !tbaa !78
  %29 = getelementptr inbounds nuw i8, ptr %0, i64 440
  store i64 0, ptr %29, align 8, !tbaa !216
  br label %30

30:                                               ; preds = %11, %9, %7, %14
  %.0 = phi i32 [ 0, %14 ], [ -30, %7 ], [ -21, %9 ], [ -403, %11 ]
  ret i32 %.0
}